; Function Attrs: mustprogress nounwind uwtable
define hidden noundef zeroext i1 @_ZNK10CompiledIC8is_cleanEv(ptr nocapture noundef nonnull readonly align 8 dereferenceable(24) %0) local_unnamed_addr #0 align 2 {
  %2 = getelementptr inbounds i8, ptr %0, i64 16
  %3 = load ptr, ptr %2, align 8
  %4 = tail call noundef ptr @_ZNK10NativeCall11destinationEv(ptr noundef nonnull align 1 dereferenceable(1) %3) #14
  %5 = load ptr, ptr @_ZN13SharedRuntime26_resolve_virtual_call_blobE, align 8
  %6 = getelementptr inbounds i8, ptr %5, i64 36
  %7 = load i32, ptr %6, align 4
  %8 = sext i32 %7 to i64
  %9 = getelementptr inbounds i8, ptr %5, i64 %8
  %10 = icmp eq ptr %4, %9
  ret i1 %10
}